target datalayout = "e-m:e-p270:32:32-p271:32:32-p272:64:64-i64:64-i128:128-f80:128-n8:16:32:64-S128"
target triple = "x86_64-pc-linux-gnu"

%struct.ZSTD_Sequence = type { i32, i32, i32, i32 }

; Function Attrs: nounwind uwtable
define i64 @ZSTD_mergeBlockDelimiters(ptr noundef %0, i64 noundef %1) #0 {
  %3 = alloca ptr, align 8
  %4 = alloca i64, align 8
  %5 = alloca i64, align 8
  %6 = alloca i64, align 8
  store ptr %0, ptr %3, align 8, !tbaa !15
  store i64 %1, ptr %4, align 8, !tbaa !3
  call void @llvm.lifetime.start.p0(i64 8, ptr %5) #15
  store i64 0, ptr %5, align 8, !tbaa !3
  call void @llvm.lifetime.start.p0(i64 8, ptr %6) #15
  store i64 0, ptr %6, align 8, !tbaa !3
  br label %7

7:                                                ; preds = %54, %2
  %8 = load i64, ptr %5, align 8, !tbaa !3
  %9 = load i64, ptr %4, align 8, !tbaa !3
  %10 = icmp ult i64 %8, %9
  br i1 %10, label %11, label %57

11:                                               ; preds = %7
  %12 = load ptr, ptr %3, align 8, !tbaa !15
  %13 = load i64, ptr %5, align 8, !tbaa !3
  %14 = getelementptr inbounds nuw %struct.ZSTD_Sequence, ptr %12, i64 %13
  %15 = getelementptr inbounds nuw %struct.ZSTD_Sequence, ptr %14, i32 0, i32 0
  %16 = load i32, ptr %15, align 4, !tbaa !71
  %17 = icmp eq i32 %16, 0
  br i1 %17, label %18, label %44

18:                                               ; preds = %11
  %19 = load ptr, ptr %3, align 8, !tbaa !15
  %20 = load i64, ptr %5, align 8, !tbaa !3
  %21 = getelementptr inbounds nuw %struct.ZSTD_Sequence, ptr %19, i64 %20
  %22 = getelementptr inbounds nuw %struct.ZSTD_Sequence, ptr %21, i32 0, i32 2
  %23 = load i32, ptr %22, align 4, !tbaa !66
  %24 = icmp eq i32 %23, 0
  br i1 %24, label %25, label %44

25:                                               ; preds = %18
  %26 = load i64, ptr %5, align 8, !tbaa !3
  %27 = load i64, ptr %4, align 8, !tbaa !3
  %28 = sub i64 %27, 1
  %29 = icmp ne i64 %26, %28
  br i1 %29, label %30, label %43

30:                                               ; preds = %25
  %31 = load ptr, ptr %3, align 8, !tbaa !15
  %32 = load i64, ptr %5, align 8, !tbaa !3
  %33 = getelementptr inbounds nuw %struct.ZSTD_Sequence, ptr %31, i64 %32
  %34 = getelementptr inbounds nuw %struct.ZSTD_Sequence, ptr %33, i32 0, i32 1
  %35 = load i32, ptr %34, align 4, !tbaa !72
  %36 = load ptr, ptr %3, align 8, !tbaa !15
  %37 = load i64, ptr %5, align 8, !tbaa !3
  %38 = add i64 %37, 1
  %39 = getelementptr inbounds nuw %struct.ZSTD_Sequence, ptr %36, i64 %38
  %40 = getelementptr inbounds nuw %struct.ZSTD_Sequence, ptr %39, i32 0, i32 1
  %41 = load i32, ptr %40, align 4, !tbaa !72
  %42 = add i32 %41, %35
  store i32 %42, ptr %40, align 4, !tbaa !72
  br label %43

43:                                               ; preds = %30, %25
  br label %53

44:                                               ; preds = %18, %11
  %45 = load ptr, ptr %3, align 8, !tbaa !15
  %46 = load i64, ptr %6, align 8, !tbaa !3
  %47 = getelementptr inbounds nuw %struct.ZSTD_Sequence, ptr %45, i64 %46
  %48 = load ptr, ptr %3, align 8, !tbaa !15
  %49 = load i64, ptr %5, align 8, !tbaa !3
  %50 = getelementptr inbounds nuw %struct.ZSTD_Sequence, ptr %48, i64 %49
  call void @llvm.memcpy.p0.p0.i64(ptr align 4 %47, ptr align 4 %50, i64 16, i1 false), !tbaa.struct !227
  %51 = load i64, ptr %6, align 8, !tbaa !3
  %52 = add i64 %51, 1
  store i64 %52, ptr %6, align 8, !tbaa !3
  br label %53

53:                                               ; preds = %44, %43
  br label %54

54:                                               ; preds = %53
  %55 = load i64, ptr %5, align 8, !tbaa !3
  %56 = add i64 %55, 1
  store i64 %56, ptr %5, align 8, !tbaa !3
  br label %7, !llvm.loop !228

57:                                               ; preds = %7
  %58 = load i64, ptr %6, align 8, !tbaa !3
  call void @llvm.lifetime.end.p0(i64 8, ptr %6) #15
  call void @llvm.lifetime.end.p0(i64 8, ptr %5) #15
  ret i64 %58
}