; Function Attrs: nofree norecurse nosync nounwind memory(argmem: readwrite) uwtable
define i64 @ZSTD_mergeBlockDelimiters(ptr noundef captures(none) %0, i64 noundef %1) local_unnamed_addr #13 {
  %.not23 = icmp eq i64 %1, 0
  br i1 %.not23, label %._crit_edge, label %.lr.ph

.lr.ph:                                           ; preds = %2
  %3 = add i64 %1, -1
  br label %4

4:                                                ; preds = %.lr.ph, %22
  %.022 = phi i64 [ 0, %.lr.ph ], [ %.1, %22 ]
  %.01820 = phi i64 [ 0, %.lr.ph ], [ %23, %22 ]
  %5 = getelementptr inbounds nuw %struct.ZSTD_Sequence, ptr %0, i64 %.01820
  %6 = load i32, ptr %5, align 4, !tbaa !210
  %7 = icmp eq i32 %6, 0
  br i1 %7, label %8, label %19

8:                                                ; preds = %4
  %9 = getelementptr inbounds nuw i8, ptr %5, i64 8
  %10 = load i32, ptr %9, align 4, !tbaa !212
  %11 = icmp eq i32 %10, 0
  br i1 %11, label %12, label %19

12:                                               ; preds = %8
  %.not = icmp eq i64 %.01820, %3
  br i1 %.not, label %22, label %13

13:                                               ; preds = %12
  %14 = getelementptr inbounds nuw i8, ptr %5, i64 4
  %15 = load i32, ptr %14, align 4, !tbaa !213
  %16 = getelementptr i8, ptr %5, i64 20
  %17 = load i32, ptr %16, align 4, !tbaa !213
  %18 = add i32 %17, %15
  store i32 %18, ptr %16, align 4, !tbaa !213
  br label %22

19:                                               ; preds = %8, %4
  %20 = getelementptr inbounds nuw %struct.ZSTD_Sequence, ptr %0, i64 %.022
  tail call void @llvm.memcpy.p0.p0.i64(ptr noundef nonnull align 4 dereferenceable(16) %20, ptr noundef nonnull align 4 dereferenceable(16) %5, i64 16, i1 false), !tbaa.struct !214
  %21 = add i64 %.022, 1
  br label %22

22:                                               ; preds = %19, %13, %12
  %.1 = phi i64 [ %.022, %13 ], [ %.022, %12 ], [ %21, %19 ]
  %23 = add nuw i64 %.01820, 1
  %exitcond.not = icmp eq i64 %23, %1
  br i1 %exitcond.not, label %._crit_edge, label %4, !llvm.loop !215

._crit_edge:                                      ; preds = %22, %2
  %.0.lcssa = phi i64 [ 0, %2 ], [ %.1, %22 ]
  ret i64 %.0.lcssa
}